target datalayout = "e-m:e-p270:32:32-p271:32:32-p272:64:64-i64:64-i128:128-f80:128-n8:16:32:64-S128"
target triple = "x86_64-pc-linux-gnu"

%struct.psa_global_data_t = type { [23 x ptr], [22 x i64], i8 }
%struct.psa_key_slot_t = type { %struct.psa_key_attributes_s, i32, i8, %union.anon, %struct.key_data }
%struct.psa_key_attributes_s = type { i16, i16, i32, %struct.psa_key_policy_s, i32 }
%struct.psa_key_policy_s = type { i32, i32, i32 }
%union.anon = type { %struct.anon.0 }
%struct.anon.0 = type { i64 }
%struct.key_data = type { ptr, i64 }
%struct.anon = type { i32 }

@global_data = internal global %struct.psa_global_data_t zeroinitializer, align 8

; Function Attrs: nounwind uwtable
define internal i32 @volatile_key_id_of_index(i64 noundef %0, i64 noundef %1) #0 {
  %3 = alloca i64, align 8
  %4 = alloca i64, align 8
  store i64 %0, ptr %3, align 8, !tbaa !11
  store i64 %1, ptr %4, align 8, !tbaa !11
  %5 = load i64, ptr %3, align 8, !tbaa !11
  %6 = shl i64 %5, 25
  %7 = or i64 1073741824, %6
  %8 = load i64, ptr %4, align 8, !tbaa !11
  %9 = or i64 %7, %8
  %10 = trunc i64 %9 to i32
  ret i32 %10
}

; Function Attrs: inlinehint nounwind uwtable
define internal i64 @key_slice_length(i64 noundef %0) #3 {
  %2 = alloca i64, align 8
  %3 = alloca i64, align 8
  store i64 %0, ptr %3, align 8, !tbaa !11
  %4 = load i64, ptr %3, align 8, !tbaa !11
  %5 = icmp eq i64 %4, 22
  br i1 %5, label %6, label %7

6:                                                ; preds = %1
  store i64 32, ptr %2, align 8
  br label %12

7:                                                ; preds = %1
  %8 = load i64, ptr %3, align 8, !tbaa !11
  %9 = trunc i64 %8 to i32
  %10 = shl i32 16, %9
  %11 = zext i32 %10 to i64
  store i64 %11, ptr %2, align 8
  br label %12

12:                                               ; preds = %7, %6
  %13 = load i64, ptr %2, align 8
  ret i64 %13
}

; Function Attrs: inlinehint nounwind uwtable
define internal i32 @psa_key_slot_state_transition(ptr noundef %0, i32 noundef %1, i32 noundef %2) #3 {
  %4 = alloca i32, align 4
  %5 = alloca ptr, align 8
  %6 = alloca i32, align 4
  %7 = alloca i32, align 4
  store ptr %0, ptr %5, align 8, !tbaa !7
  store i32 %1, ptr %6, align 4, !tbaa !3
  store i32 %2, ptr %7, align 4, !tbaa !3
  %8 = load ptr, ptr %5, align 8, !tbaa !7
  %9 = getelementptr inbounds nuw %struct.psa_key_slot_t, ptr %8, i32 0, i32 1
  %10 = load i32, ptr %9, align 8, !tbaa !13
  %11 = load i32, ptr %6, align 4, !tbaa !3
  %12 = icmp ne i32 %10, %11
  br i1 %12, label %13, label %14

13:                                               ; preds = %3
  store i32 -151, ptr %4, align 4
  br label %18

14:                                               ; preds = %3
  %15 = load i32, ptr %7, align 4, !tbaa !3
  %16 = load ptr, ptr %5, align 8, !tbaa !7
  %17 = getelementptr inbounds nuw %struct.psa_key_slot_t, ptr %16, i32 0, i32 1
  store i32 %15, ptr %17, align 8, !tbaa !13
  store i32 0, ptr %4, align 4
  br label %18

18:                                               ; preds = %14, %13
  %19 = load i32, ptr %4, align 4
  ret i32 %19
}

; Function Attrs: inlinehint nounwind uwtable
define internal i32 @psa_register_read(ptr noundef %0) #3 {
  %2 = alloca i32, align 4
  %3 = alloca ptr, align 8
  store ptr %0, ptr %3, align 8, !tbaa !7
  %4 = load ptr, ptr %3, align 8, !tbaa !7
  %5 = getelementptr inbounds nuw %struct.psa_key_slot_t, ptr %4, i32 0, i32 1
  %6 = load i32, ptr %5, align 8, !tbaa !13
  %7 = icmp ne i32 %6, 2
  br i1 %7, label %14, label %8

8:                                                ; preds = %1
  %9 = load ptr, ptr %3, align 8, !tbaa !7
  %10 = getelementptr inbounds nuw %struct.psa_key_slot_t, ptr %9, i32 0, i32 3
  %11 = getelementptr inbounds nuw %struct.anon.0, ptr %10, i32 0, i32 0
  %12 = load i64, ptr %11, align 8, !tbaa !20
  %13 = icmp uge i64 %12, -1
  br i1 %13, label %14, label %15

14:                                               ; preds = %8, %1
  store i32 -151, ptr %2, align 4
  br label %21

15:                                               ; preds = %8
  %16 = load ptr, ptr %3, align 8, !tbaa !7
  %17 = getelementptr inbounds nuw %struct.psa_key_slot_t, ptr %16, i32 0, i32 3
  %18 = getelementptr inbounds nuw %struct.anon.0, ptr %17, i32 0, i32 0
  %19 = load i64, ptr %18, align 8, !tbaa !20
  %20 = add i64 %19, 1
  store i64 %20, ptr %18, align 8, !tbaa !20
  store i32 0, ptr %2, align 4
  br label %21

21:                                               ; preds = %15, %14
  %22 = load i32, ptr %2, align 4
  ret i32 %22
}

; Function Attrs: inlinehint nounwind uwtable
define internal i32 @psa_key_slot_has_readers(ptr noundef %0) #3 {
  %2 = alloca ptr, align 8
  store ptr %0, ptr %2, align 8, !tbaa !7
  %3 = load ptr, ptr %2, align 8, !tbaa !7
  %4 = getelementptr inbounds nuw %struct.psa_key_slot_t, ptr %3, i32 0, i32 3
  %5 = getelementptr inbounds nuw %struct.anon.0, ptr %4, i32 0, i32 0
  %6 = load i64, ptr %5, align 8, !tbaa !20
  %7 = icmp ugt i64 %6, 0
  %8 = zext i1 %7 to i32
  ret i32 %8
}

; Function Attrs: inlinehint nounwind uwtable
define internal ptr @get_key_slot(i64 noundef %0, i64 noundef %1) #3 {
  %3 = alloca i64, align 8
  %4 = alloca i64, align 8
  store i64 %0, ptr %3, align 8, !tbaa !11
  store i64 %1, ptr %4, align 8, !tbaa !11
  %5 = load i64, ptr %3, align 8, !tbaa !11
  %6 = getelementptr inbounds nuw [23 x ptr], ptr @global_data, i64 0, i64 %5
  %7 = load ptr, ptr %6, align 8, !tbaa !7
  %8 = load i64, ptr %4, align 8, !tbaa !11
  %9 = getelementptr inbounds nuw %struct.psa_key_slot_t, ptr %7, i64 %8
  ret ptr %9
}

; Function Attrs: nounwind uwtable
define internal i32 @psa_allocate_volatile_key_slot(ptr noundef %0, ptr noundef %1) #0 {
  %3 = alloca i32, align 4
  %4 = alloca ptr, align 8
  %5 = alloca ptr, align 8
  %6 = alloca i64, align 8
  %7 = alloca i32, align 4
  %8 = alloca ptr, align 8
  %9 = alloca i64, align 8
  %10 = alloca ptr, align 8
  %11 = alloca i64, align 8
  %12 = alloca i32, align 4
  store ptr %0, ptr %4, align 8, !tbaa !25
  store ptr %1, ptr %5, align 8, !tbaa !27
  call void @llvm.lifetime.start.p0(i64 8, ptr %6) #7
  store i64 0, ptr %6, align 8, !tbaa !11
  br label %13

13:                                               ; preds = %23, %2
  %14 = load i64, ptr %6, align 8, !tbaa !11
  %15 = icmp ult i64 %14, 22
  br i1 %15, label %16, label %26

16:                                               ; preds = %13
  %17 = load i64, ptr %6, align 8, !tbaa !11
  %18 = getelementptr inbounds nuw [22 x i64], ptr getelementptr inbounds nuw (%struct.psa_global_data_t, ptr @global_data, i32 0, i32 1), i64 0, i64 %17
  %19 = load i64, ptr %18, align 8, !tbaa !11
  %20 = icmp ne i64 %19, -1
  br i1 %20, label %21, label %22

21:                                               ; preds = %16
  br label %26

22:                                               ; preds = %16
  br label %23

23:                                               ; preds = %22
  %24 = load i64, ptr %6, align 8, !tbaa !11
  %25 = add i64 %24, 1
  store i64 %25, ptr %6, align 8, !tbaa !11
  br label %13, !llvm.loop !32

26:                                               ; preds = %21, %13
  %27 = load i64, ptr %6, align 8, !tbaa !11
  %28 = icmp eq i64 %27, 22
  br i1 %28, label %29, label %30

29:                                               ; preds = %26
  store i32 -141, ptr %3, align 4
  store i32 1, ptr %7, align 4
  br label %95

30:                                               ; preds = %26
  %31 = load i64, ptr %6, align 8, !tbaa !11
  %32 = getelementptr inbounds nuw [23 x ptr], ptr @global_data, i64 0, i64 %31
  %33 = load ptr, ptr %32, align 8, !tbaa !7
  %34 = icmp eq ptr %33, null
  br i1 %34, label %35, label %47

35:                                               ; preds = %30
  %36 = load i64, ptr %6, align 8, !tbaa !11
  %37 = call i64 @key_slice_length(i64 noundef %36)
  %38 = call noalias ptr @calloc(i64 noundef %37, i64 noundef 56) #8
  %39 = load i64, ptr %6, align 8, !tbaa !11
  %40 = getelementptr inbounds nuw [23 x ptr], ptr @global_data, i64 0, i64 %39
  store ptr %38, ptr %40, align 8, !tbaa !7
  %41 = load i64, ptr %6, align 8, !tbaa !11
  %42 = getelementptr inbounds nuw [23 x ptr], ptr @global_data, i64 0, i64 %41
  %43 = load ptr, ptr %42, align 8, !tbaa !7
  %44 = icmp eq ptr %43, null
  br i1 %44, label %45, label %46

45:                                               ; preds = %35
  store i32 -141, ptr %3, align 4
  store i32 1, ptr %7, align 4
  br label %95

46:                                               ; preds = %35
  br label %47

47:                                               ; preds = %46, %30
  call void @llvm.lifetime.start.p0(i64 8, ptr %8) #7
  %48 = load i64, ptr %6, align 8, !tbaa !11
  %49 = getelementptr inbounds nuw [23 x ptr], ptr @global_data, i64 0, i64 %48
  %50 = load ptr, ptr %49, align 8, !tbaa !7
  store ptr %50, ptr %8, align 8, !tbaa !7
  call void @llvm.lifetime.start.p0(i64 8, ptr %9) #7
  %51 = load i64, ptr %6, align 8, !tbaa !11
  %52 = getelementptr inbounds nuw [22 x i64], ptr getelementptr inbounds nuw (%struct.psa_global_data_t, ptr @global_data, i32 0, i32 1), i64 0, i64 %51
  %53 = load i64, ptr %52, align 8, !tbaa !11
  store i64 %53, ptr %9, align 8, !tbaa !11
  %54 = load i64, ptr %6, align 8, !tbaa !11
  %55 = load i64, ptr %9, align 8, !tbaa !11
  %56 = call i32 @volatile_key_id_of_index(i64 noundef %54, i64 noundef %55)
  %57 = load ptr, ptr %4, align 8, !tbaa !25
  store i32 %56, ptr %57, align 4, !tbaa !3
  call void @llvm.lifetime.start.p0(i64 8, ptr %10) #7
  %58 = load ptr, ptr %8, align 8, !tbaa !7
  %59 = load i64, ptr %9, align 8, !tbaa !11
  %60 = getelementptr inbounds nuw %struct.psa_key_slot_t, ptr %58, i64 %59
  store ptr %60, ptr %10, align 8, !tbaa !7
  call void @llvm.lifetime.start.p0(i64 8, ptr %11) #7
  %61 = load i64, ptr %9, align 8, !tbaa !11
  %62 = add i64 %61, 1
  %63 = load ptr, ptr %10, align 8, !tbaa !7
  %64 = getelementptr inbounds nuw %struct.psa_key_slot_t, ptr %63, i32 0, i32 3
  %65 = getelementptr inbounds nuw %struct.anon, ptr %64, i32 0, i32 0
  %66 = load i32, ptr %65, align 8, !tbaa !20
  %67 = sext i32 %66 to i64
  %68 = add i64 %62, %67
  store i64 %68, ptr %11, align 8, !tbaa !11
  %69 = load i64, ptr %11, align 8, !tbaa !11
  %70 = load i64, ptr %6, align 8, !tbaa !11
  %71 = call i64 @key_slice_length(i64 noundef %70)
  %72 = icmp uge i64 %69, %71
  br i1 %72, label %73, label %74

73:                                               ; preds = %47
  store i64 -1, ptr %11, align 8, !tbaa !11
  br label %74

74:                                               ; preds = %73, %47
  %75 = load i64, ptr %11, align 8, !tbaa !11
  %76 = load i64, ptr %6, align 8, !tbaa !11
  %77 = getelementptr inbounds nuw [22 x i64], ptr getelementptr inbounds nuw (%struct.psa_global_data_t, ptr @global_data, i32 0, i32 1), i64 0, i64 %76
  store i64 %75, ptr %77, align 8, !tbaa !11
  %78 = load ptr, ptr %10, align 8, !tbaa !7
  %79 = getelementptr inbounds nuw %struct.psa_key_slot_t, ptr %78, i32 0, i32 3
  %80 = getelementptr inbounds nuw %struct.anon, ptr %79, i32 0, i32 0
  store i32 0, ptr %80, align 8, !tbaa !20
  call void @llvm.lifetime.start.p0(i64 4, ptr %12) #7
  %81 = load ptr, ptr %10, align 8, !tbaa !7
  %82 = call i32 @psa_key_slot_state_transition(ptr noundef %81, i32 noundef 0, i32 noundef 1)
  store i32 %82, ptr %12, align 4, !tbaa !3
  %83 = load i32, ptr %12, align 4, !tbaa !3
  %84 = icmp ne i32 %83, 0
  br i1 %84, label %85, label %87

85:                                               ; preds = %74
  %86 = load i32, ptr %12, align 4, !tbaa !3
  store i32 %86, ptr %3, align 4
  store i32 1, ptr %7, align 4
  br label %94

87:                                               ; preds = %74
  %88 = load ptr, ptr %10, align 8, !tbaa !7
  %89 = load ptr, ptr %5, align 8, !tbaa !27
  store ptr %88, ptr %89, align 8, !tbaa !7
  %90 = load i64, ptr %6, align 8, !tbaa !11
  %91 = trunc i64 %90 to i8
  %92 = load ptr, ptr %10, align 8, !tbaa !7
  %93 = getelementptr inbounds nuw %struct.psa_key_slot_t, ptr %92, i32 0, i32 2
  store i8 %91, ptr %93, align 4, !tbaa !31
  store i32 0, ptr %3, align 4
  store i32 1, ptr %7, align 4
  br label %94

94:                                               ; preds = %87, %85
  call void @llvm.lifetime.end.p0(i64 4, ptr %12) #7
  call void @llvm.lifetime.end.p0(i64 8, ptr %11) #7
  call void @llvm.lifetime.end.p0(i64 8, ptr %10) #7
  call void @llvm.lifetime.end.p0(i64 8, ptr %9) #7
  call void @llvm.lifetime.end.p0(i64 8, ptr %8) #7
  br label %95

95:                                               ; preds = %94, %45, %29
  call void @llvm.lifetime.end.p0(i64 8, ptr %6) #7
  %96 = load i32, ptr %3, align 4
  ret i32 %96
}

; Function Attrs: nounwind uwtable
define internal zeroext i8 @psa_get_key_slots_initialized() #0 {
  %1 = alloca i8, align 1
  call void @llvm.lifetime.start.p0(i64 1, ptr %1) #7
  %2 = load i8, ptr getelementptr inbounds nuw (%struct.psa_global_data_t, ptr @global_data, i32 0, i32 2), align 8, !tbaa !9
  store i8 %2, ptr %1, align 1, !tbaa !20
  %3 = load i8, ptr %1, align 1, !tbaa !20
  call void @llvm.lifetime.end.p0(i64 1, ptr %1) #7
  ret i8 %3
}

; Function Attrs: nounwind uwtable
define hidden i32 @psa_reserve_free_key_slot(ptr noundef %0, ptr noundef %1) #0 {
  %3 = alloca i32, align 4
  %4 = alloca ptr, align 8
  %5 = alloca ptr, align 8
  %6 = alloca i32, align 4
  %7 = alloca i64, align 8
  %8 = alloca ptr, align 8
  %9 = alloca ptr, align 8
  %10 = alloca i32, align 4
  %11 = alloca ptr, align 8
  store ptr %0, ptr %4, align 8, !tbaa !25
  store ptr %1, ptr %5, align 8, !tbaa !27
  call void @llvm.lifetime.start.p0(i64 4, ptr %6) #7
  store i32 -151, ptr %6, align 4, !tbaa !3
  call void @llvm.lifetime.start.p0(i64 8, ptr %7) #7
  call void @llvm.lifetime.start.p0(i64 8, ptr %8) #7
  call void @llvm.lifetime.start.p0(i64 8, ptr %9) #7
  %12 = call zeroext i8 @psa_get_key_slots_initialized()
  %13 = icmp ne i8 %12, 0
  br i1 %13, label %15, label %14

14:                                               ; preds = %2
  store i32 -137, ptr %6, align 4, !tbaa !3
  br label %96

15:                                               ; preds = %2
  %16 = load ptr, ptr %4, align 8, !tbaa !25
  %17 = icmp ne ptr %16, null
  br i1 %17, label %18, label %22

18:                                               ; preds = %15
  %19 = load ptr, ptr %4, align 8, !tbaa !25
  %20 = load ptr, ptr %5, align 8, !tbaa !27
  %21 = call i32 @psa_allocate_volatile_key_slot(ptr noundef %19, ptr noundef %20)
  store i32 %21, ptr %3, align 4
  store i32 1, ptr %10, align 4
  br label %99

22:                                               ; preds = %15
  store ptr null, ptr %9, align 8, !tbaa !7
  store ptr null, ptr %8, align 8, !tbaa !7
  store i64 0, ptr %7, align 8, !tbaa !11
  br label %23

23:                                               ; preds = %62, %22
  %24 = load i64, ptr %7, align 8, !tbaa !11
  %25 = icmp ult i64 %24, 32
  br i1 %25, label %26, label %65

26:                                               ; preds = %23
  call void @llvm.lifetime.start.p0(i64 8, ptr %11) #7
  %27 = load i64, ptr %7, align 8, !tbaa !11
  %28 = call ptr @get_key_slot(i64 noundef 22, i64 noundef %27)
  store ptr %28, ptr %11, align 8, !tbaa !7
  %29 = load ptr, ptr %11, align 8, !tbaa !7
  %30 = getelementptr inbounds nuw %struct.psa_key_slot_t, ptr %29, i32 0, i32 1
  %31 = load i32, ptr %30, align 8, !tbaa !13
  %32 = icmp eq i32 %31, 0
  br i1 %32, label %33, label %35

33:                                               ; preds = %26
  %34 = load ptr, ptr %11, align 8, !tbaa !7
  store ptr %34, ptr %8, align 8, !tbaa !7
  store i32 3, ptr %10, align 4
  br label %59

35:                                               ; preds = %26
  %36 = load ptr, ptr %9, align 8, !tbaa !7
  %37 = icmp eq ptr %36, null
  br i1 %37, label %38, label %58

38:                                               ; preds = %35
  %39 = load ptr, ptr %11, align 8, !tbaa !7
  %40 = getelementptr inbounds nuw %struct.psa_key_slot_t, ptr %39, i32 0, i32 1
  %41 = load i32, ptr %40, align 8, !tbaa !13
  %42 = icmp eq i32 %41, 2
  br i1 %42, label %43, label %58

43:                                               ; preds = %38
  %44 = load ptr, ptr %11, align 8, !tbaa !7
  %45 = call i32 @psa_key_slot_has_readers(ptr noundef %44)
  %46 = icmp ne i32 %45, 0
  br i1 %46, label %58, label %47

47:                                               ; preds = %43
  %48 = load ptr, ptr %11, align 8, !tbaa !7
  %49 = getelementptr inbounds nuw %struct.psa_key_slot_t, ptr %48, i32 0, i32 0
  %50 = getelementptr inbounds nuw %struct.psa_key_attributes_s, ptr %49, i32 0, i32 2
  %51 = load i32, ptr %50, align 4, !tbaa !29
  %52 = and i32 %51, 255
  %53 = trunc i32 %52 to i8
  %54 = zext i8 %53 to i32
  %55 = icmp eq i32 %54, 0
  br i1 %55, label %58, label %56

56:                                               ; preds = %47
  %57 = load ptr, ptr %11, align 8, !tbaa !7
  store ptr %57, ptr %9, align 8, !tbaa !7
  br label %58

58:                                               ; preds = %56, %47, %43, %38, %35
  store i32 0, ptr %10, align 4
  br label %59

59:                                               ; preds = %58, %33
  call void @llvm.lifetime.end.p0(i64 8, ptr %11) #7
  %60 = load i32, ptr %10, align 4
  switch i32 %60, label %101 [
    i32 0, label %61
    i32 3, label %65
  ]

61:                                               ; preds = %59
  br label %62

62:                                               ; preds = %61
  %63 = load i64, ptr %7, align 8, !tbaa !11
  %64 = add i64 %63, 1
  store i64 %64, ptr %7, align 8, !tbaa !11
  br label %23, !llvm.loop !30

65:                                               ; preds = %59, %23
  %66 = load ptr, ptr %8, align 8, !tbaa !7
  %67 = icmp eq ptr %66, null
  br i1 %67, label %68, label %81

68:                                               ; preds = %65
  %69 = load ptr, ptr %9, align 8, !tbaa !7
  %70 = icmp ne ptr %69, null
  br i1 %70, label %71, label %81

71:                                               ; preds = %68
  %72 = load ptr, ptr %9, align 8, !tbaa !7
  store ptr %72, ptr %8, align 8, !tbaa !7
  %73 = load ptr, ptr %8, align 8, !tbaa !7
  %74 = call i32 @psa_register_read(ptr noundef %73)
  %75 = load ptr, ptr %8, align 8, !tbaa !7
  %76 = call i32 @psa_wipe_key_slot(ptr noundef %75)
  store i32 %76, ptr %6, align 4, !tbaa !3
  %77 = load i32, ptr %6, align 4, !tbaa !3
  %78 = icmp ne i32 %77, 0
  br i1 %78, label %79, label %80

79:                                               ; preds = %71
  br label %96

80:                                               ; preds = %71
  br label %81

81:                                               ; preds = %80, %68, %65
  %82 = load ptr, ptr %8, align 8, !tbaa !7
  %83 = icmp ne ptr %82, null
  br i1 %83, label %84, label %95

84:                                               ; preds = %81
  %85 = load ptr, ptr %8, align 8, !tbaa !7
  %86 = call i32 @psa_key_slot_state_transition(ptr noundef %85, i32 noundef 0, i32 noundef 1)
  store i32 %86, ptr %6, align 4, !tbaa !3
  %87 = load i32, ptr %6, align 4, !tbaa !3
  %88 = icmp ne i32 %87, 0
  br i1 %88, label %89, label %90

89:                                               ; preds = %84
  br label %96

90:                                               ; preds = %84
  %91 = load ptr, ptr %8, align 8, !tbaa !7
  %92 = getelementptr inbounds nuw %struct.psa_key_slot_t, ptr %91, i32 0, i32 2
  store i8 22, ptr %92, align 4, !tbaa !31
  %93 = load ptr, ptr %8, align 8, !tbaa !7
  %94 = load ptr, ptr %5, align 8, !tbaa !27
  store ptr %93, ptr %94, align 8, !tbaa !7
  store i32 0, ptr %3, align 4
  store i32 1, ptr %10, align 4
  br label %99

95:                                               ; preds = %81
  store i32 -141, ptr %6, align 4, !tbaa !3
  br label %96

96:                                               ; preds = %95, %89, %79, %14
  %97 = load ptr, ptr %5, align 8, !tbaa !27
  store ptr null, ptr %97, align 8, !tbaa !7
  %98 = load i32, ptr %6, align 4, !tbaa !3
  store i32 %98, ptr %3, align 4
  store i32 1, ptr %10, align 4
  br label %99

99:                                               ; preds = %96, %90, %18
  call void @llvm.lifetime.end.p0(i64 8, ptr %9) #7
  call void @llvm.lifetime.end.p0(i64 8, ptr %8) #7
  call void @llvm.lifetime.end.p0(i64 8, ptr %7) #7
  call void @llvm.lifetime.end.p0(i64 4, ptr %6) #7
  %100 = load i32, ptr %3, align 4
  ret i32 %100

101:                                              ; preds = %59
  unreachable
}