; Function Attrs: nounwind uwtable
define hidden i32 @psa_reserve_free_key_slot(ptr noundef writeonly %0, ptr noundef writeonly captures(none) %1) local_unnamed_addr #4 {
  %3 = load i8, ptr getelementptr inbounds nuw (i8, ptr @global_data, i64 360), align 8, !tbaa !7
  %.not = icmp eq i8 %3, 0
  br i1 %.not, label %psa_key_slot_state_transition.exit, label %4

4:                                                ; preds = %2
  %.not41 = icmp eq ptr %0, null
  br i1 %.not41, label %.preheader, label %.preheader69

.preheader:                                       ; preds = %4
  %5 = load ptr, ptr getelementptr inbounds nuw (i8, ptr @global_data, i64 176), align 8, !tbaa !3
  br label %36

.preheader69:                                     ; preds = %4, %8
  %.03041.i = phi i64 [ %9, %8 ], [ 0, %4 ]
  %6 = getelementptr inbounds nuw [22 x i64], ptr getelementptr inbounds nuw (i8, ptr @global_data, i64 184), i64 0, i64 %.03041.i
  %7 = load i64, ptr %6, align 8, !tbaa !22
  %.not.i = icmp eq i64 %7, -1
  br i1 %.not.i, label %8, label %.thread.i

8:                                                ; preds = %.preheader69
  %9 = add nuw nsw i64 %.03041.i, 1
  %exitcond.not.i = icmp eq i64 %9, 22
  br i1 %exitcond.not.i, label %psa_allocate_volatile_key_slot.exit, label %.preheader69, !llvm.loop !23

.thread.i:                                        ; preds = %.preheader69
  %10 = getelementptr inbounds nuw [22 x i64], ptr getelementptr inbounds nuw (i8, ptr @global_data, i64 184), i64 0, i64 %.03041.i
  %11 = getelementptr inbounds nuw [23 x ptr], ptr @global_data, i64 0, i64 %.03041.i
  %12 = load ptr, ptr %11, align 8, !tbaa !3
  %13 = icmp eq ptr %12, null
  %14 = trunc i64 %.03041.i to i32
  %15 = shl i32 16, %14
  %16 = zext i32 %15 to i64
  br i1 %13, label %17, label %.thread._crit_edge.i

17:                                               ; preds = %.thread.i
  %18 = tail call noalias ptr @calloc(i64 noundef %16, i64 noundef 56) #11
  store ptr %18, ptr %11, align 8, !tbaa !3
  %19 = icmp eq ptr %18, null
  br i1 %19, label %psa_allocate_volatile_key_slot.exit, label %.thread._crit_edge.i

.thread._crit_edge.i:                             ; preds = %17, %.thread.i
  %20 = phi ptr [ %18, %17 ], [ %12, %.thread.i ]
  %21 = shl i64 %.03041.i, 25
  %22 = or i64 %7, %21
  %23 = trunc i64 %22 to i32
  %24 = or i32 %23, 1073741824
  store i32 %24, ptr %0, align 4, !tbaa !24
  %25 = getelementptr inbounds nuw %struct.psa_key_slot_t, ptr %20, i64 %7
  %26 = add nuw i64 %7, 1
  %27 = getelementptr inbounds nuw i8, ptr %25, i64 32
  %28 = load i32, ptr %27, align 8, !tbaa !18
  %29 = sext i32 %28 to i64
  %30 = add i64 %26, %29
  %.not33.i = icmp ult i64 %30, %16
  %spec.select.i = select i1 %.not33.i, i64 %30, i64 -1
  store i64 %spec.select.i, ptr %10, align 8, !tbaa !22
  store i32 0, ptr %27, align 8, !tbaa !18
  %31 = getelementptr inbounds nuw i8, ptr %25, i64 24
  %32 = load i32, ptr %31, align 8, !tbaa !9
  %.not.i.i = icmp eq i32 %32, 0
  br i1 %.not.i.i, label %33, label %psa_allocate_volatile_key_slot.exit

33:                                               ; preds = %.thread._crit_edge.i
  store i32 1, ptr %31, align 8, !tbaa !9
  store ptr %25, ptr %1, align 8, !tbaa !3
  %34 = trunc i64 %.03041.i to i8
  %35 = getelementptr inbounds nuw i8, ptr %25, i64 28
  store i8 %34, ptr %35, align 4, !tbaa !25
  br label %psa_allocate_volatile_key_slot.exit

36:                                               ; preds = %.preheader, %52
  %.03078 = phi ptr [ null, %.preheader ], [ %.2.ph, %52 ]
  %.03577 = phi i64 [ 0, %.preheader ], [ %53, %52 ]
  %37 = getelementptr inbounds nuw %struct.psa_key_slot_t, ptr %5, i64 %.03577
  %38 = getelementptr inbounds nuw i8, ptr %37, i64 24
  %39 = load i32, ptr %38, align 8, !tbaa !9
  %40 = icmp eq i32 %39, 0
  br i1 %40, label %.thread56.thread, label %41

41:                                               ; preds = %36
  %42 = icmp eq ptr %.03078, null
  br i1 %42, label %43, label %52

43:                                               ; preds = %41
  %44 = icmp eq i32 %39, 2
  br i1 %44, label %45, label %52

45:                                               ; preds = %43
  %46 = getelementptr i8, ptr %37, i64 32
  %.val = load i64, ptr %46, align 8, !tbaa !18
  %.not68 = icmp eq i64 %.val, 0
  br i1 %.not68, label %47, label %52

47:                                               ; preds = %45
  %48 = getelementptr inbounds nuw i8, ptr %37, i64 4
  %49 = load i32, ptr %48, align 4, !tbaa !26
  %50 = and i32 %49, 255
  %51 = icmp eq i32 %50, 0
  %spec.select = select i1 %51, ptr null, ptr %37
  br label %52

52:                                               ; preds = %47, %45, %43, %41
  %.2.ph = phi ptr [ %spec.select, %47 ], [ %.03078, %41 ], [ null, %43 ], [ null, %45 ]
  %53 = add nuw nsw i64 %.03577, 1
  %exitcond.not = icmp eq i64 %53, 32
  br i1 %exitcond.not, label %54, label %36, !llvm.loop !27

54:                                               ; preds = %52
  %.not67 = icmp eq ptr %.2.ph, null
  br i1 %.not67, label %psa_key_slot_state_transition.exit, label %55

55:                                               ; preds = %54
  %56 = getelementptr inbounds nuw i8, ptr %.2.ph, i64 24
  %57 = load i32, ptr %56, align 8, !tbaa !9
  %.not.i46 = icmp eq i32 %57, 2
  br i1 %.not.i46, label %58, label %psa_register_read.exit

58:                                               ; preds = %55
  %59 = getelementptr inbounds nuw i8, ptr %.2.ph, i64 32
  %60 = load i64, ptr %59, align 8, !tbaa !18
  %61 = icmp eq i64 %60, -1
  br i1 %61, label %psa_register_read.exit, label %62

62:                                               ; preds = %58
  %63 = add nuw i64 %60, 1
  store i64 %63, ptr %59, align 8, !tbaa !18
  br label %psa_register_read.exit

psa_register_read.exit:                           ; preds = %55, %58, %62
  %64 = tail call i32 @psa_wipe_key_slot(ptr noundef nonnull %.2.ph) #12
  %.not43 = icmp eq i32 %64, 0
  br i1 %.not43, label %.thread56, label %psa_key_slot_state_transition.exit

.thread56:                                        ; preds = %psa_register_read.exit
  %.pre = load i32, ptr %56, align 8, !tbaa !9
  %65 = icmp eq i32 %.pre, 0
  br i1 %65, label %.thread56.thread, label %psa_key_slot_state_transition.exit

.thread56.thread:                                 ; preds = %36, %.thread56
  %.334.ph85 = phi ptr [ %.2.ph, %.thread56 ], [ %37, %36 ]
  %66 = getelementptr inbounds nuw i8, ptr %.334.ph85, i64 24
  store i32 1, ptr %66, align 8, !tbaa !9
  %67 = getelementptr inbounds nuw i8, ptr %.334.ph85, i64 28
  store i8 22, ptr %67, align 4, !tbaa !25
  store ptr %.334.ph85, ptr %1, align 8, !tbaa !3
  br label %psa_allocate_volatile_key_slot.exit

psa_key_slot_state_transition.exit:               ; preds = %.thread56, %54, %2, %psa_register_read.exit
  %.036 = phi i32 [ %64, %psa_register_read.exit ], [ -137, %2 ], [ -141, %54 ], [ -151, %.thread56 ]
  store ptr null, ptr %1, align 8, !tbaa !3
  br label %psa_allocate_volatile_key_slot.exit

psa_allocate_volatile_key_slot.exit:              ; preds = %8, %33, %.thread._crit_edge.i, %17, %psa_key_slot_state_transition.exit, %.thread56.thread
  %.0 = phi i32 [ %.036, %psa_key_slot_state_transition.exit ], [ 0, %.thread56.thread ], [ -141, %17 ], [ 0, %33 ], [ -151, %.thread._crit_edge.i ], [ -141, %8 ]
  ret i32 %.0
}